; Function Attrs: nounwind uwtable
define dso_local ptr @CopyIndexTuple(ptr noundef readonly captures(none) %0) local_unnamed_addr #0 {
  %2 = getelementptr i8, ptr %0, i64 6
  %.val = load i16, ptr %2, align 2
  %3 = and i16 %.val, 8191
  %4 = zext nneg i16 %3 to i64
  %5 = tail call ptr @palloc(i64 noundef %4) #8
  tail call void @llvm.memcpy.p0.p0.i64(ptr align 2 %5, ptr align 2 %0, i64 %4, i1 false)
  ret ptr %5
}